; Function Attrs: mustprogress nofree norecurse nosync nounwind willreturn memory(read, inaccessiblemem: none) uwtable
define noundef zeroext i1 @_ZNK32pxrInternal_v0_24__pxrReserved__16SdfValueTypeNameeqERKS0_(ptr noundef nonnull readonly align 8 captures(none) dereferenceable(8) %0, ptr noundef nonnull readonly align 8 captures(none) dereferenceable(8) %1) local_unnamed_addr #5 align 2 personality ptr @__gxx_personality_v0 {
  %3 = load ptr, ptr %0, align 8
  %4 = load ptr, ptr %3, align 8
  %5 = load ptr, ptr %1, align 8
  %6 = load ptr, ptr %5, align 8
  %7 = load ptr, ptr %4, align 8
  %8 = load ptr, ptr %6, align 8
  %9 = icmp eq ptr %7, %8
  br i1 %9, label %10, label %19

10:                                               ; preds = %2
  %11 = getelementptr inbounds nuw i8, ptr %4, i64 40
  %12 = getelementptr inbounds nuw i8, ptr %6, i64 40
  %13 = load ptr, ptr %11, align 8
  %14 = ptrtoint ptr %13 to i64
  %15 = load ptr, ptr %12, align 8
  %16 = ptrtoint ptr %15 to i64
  %17 = xor i64 %16, %14
  %18 = icmp ult i64 %17, 8
  br label %19

19:                                               ; preds = %10, %2
  %20 = phi i1 [ false, %2 ], [ %18, %10 ]
  ret i1 %20
}